; Function Attrs: mustprogress uwtable
define internal void @_ZNSt17_Function_handlerIFvvEZN5Yosys10Functional6Writer10print_withIZN12_GLOBAL__N_19CxxModule14write_eval_defERS3_EUlNS2_4NodeEE_JRS8_RiEEEvT_PKcDpOT0_EUlvE0_E9_M_invokeERKSt9_Any_data(ptr noundef nonnull readonly align 8 captures(none) dereferenceable(16) %0) #5 align 2 {
  %.val = load ptr, ptr %0, align 8, !tbaa !532
  %2 = getelementptr inbounds nuw i8, ptr %0, i64 8
  %.val1 = load ptr, ptr %2, align 8, !tbaa !534
  %.val.val = load ptr, ptr %.val, align 8, !tbaa !44
  %.val1.val = load i32, ptr %.val1, align 4, !tbaa !56
  %3 = tail call noundef nonnull align 8 dereferenceable(8) ptr @_ZNSolsEi(ptr noundef nonnull align 8 dereferenceable(8) %.val.val, i32 noundef %.val1.val)
  ret void
}